(dp1
I0
I0
sI1
I179
sI2
I190
sI3
I650
sI4
I671
sI5
I671
sI6
I884
sI7
I884
sI8
I1107
sI9
I1611
sI10
I2088
sI11
I2589
sI12
I3217
sI13
I3435
sI14
I4315
sI15
I5159
sI16
I6086
sI17
I6714
sI18
I7348
sI19
I8168
sI20
I8976
sI21
I9414
sI22
I10307
sI23
I11323
sI24
I12185
sI25
I13192
sI26
I14323
sI27
I15447
sI28
I16401
sI29
I17551
sI30
I18445
sI31
I19068
sI32
I19763
sI33
I20533
sI34
I21249
sI35
I21463
sI36
I22321
sI37
I23241
sI38
I24117
sI39
I24380
sI40
I24679
sI41
I24961
sI42
I25544
sI43
I26390
sI44
I26728
sI45
I27029
sI46
I27457
sI47
I28207
sI48
I29016
sI49
I29352
sI50
I30426
sI51
I31134
sI52
I31742
sI53
I32654
sI54
I32930
sI55
I33548
sI56
I34325
sI57
I34390
sI58
I34954
sI59
I35740
sI60
I36512
sI61
I37185
sI62
I38034
sI63
I38839
sI64
I39641
sI65
I40330
sI66
I41069
sI67
I41409
sI68
I42062
sI69
I42852
sI70
I43646
sI71
I44572
sI72
I45399
sI73
I46370
sI74
I47136
sI75
I47970
sI76
I48756
sI77
I49227
sI78
I49708
sI79
I50729
sI80
I51267
sI81
I51836
sI82
I52460
sI83
I53146
sI84
I53627
sI85
I54158
sI86
I54611
sI87
I55118
sI88
I55716
sI89
I56280
sI90
I56746
sI91
I57291
sI92
I57885
sI93
I58460
sI94
I58884
sI95
I59663
sI96
I60500
sI97
I60543
sI98
I61333
sI99
I61941
sI100
I62702
sI101
I63236
sI102
I63824
sI103
I64502
sI104
I65160
sI105
I65294
sI106
I65393
sI107
I65478
sI108
I66161
sI109
I66759
sI110
I67502
sI111
I67870
sI112
I68621
sI113
I69489
sI114
I70344
sI115
I71023
sI116
I71072
sI117
I71544
sI118
I72308
sI119
I72970
sI120
I73864
sI121
I74363
sI122
I74926
sI123
I75596
sI124
I76408
sI125
I77226
sI126
I77764
sI127
I77867
sI128
I78483
sI129
I78705
sI130
I79504
sI131
I80483
sI132
I81197
sI133
I82200
sI134
I83154
sI135
I83988
sI136
I85043
sI137
I85973
sI138
I86867
sI139
I87905
sI140
I88930
sI141
I89235
sI142
I89935
sI143
I90879
sI144
I91356
sI145
I92068
sI146
I92847
sI147
I93716
sI148
I94594
sI149
I95383
sI150
I96091
sI151
I96732
sI152
I97351
sI153
I98149
sI154
I98785
sI155
I99563
sI156
I100057
sI157
I100631
sI158
I101387
sI159
I102263
sI160
I102939
sI161
I103775
sI162
I104478
sI163
I105378
sI164
I106190
sI165
I107064
sI166
I107908
sI167
I108465
sI168
I109195
sI169
I110076
sI170
I110901
sI171
I111755
sI172
I112410
sI173
I113254
sI174
I113757
sI175
I114325
sI176
I114930
sI177
I115761
sI178
I116026
sI179
I116492
sI180
I117098
sI181
I117608
sI182
I118016
sI183
I118469
sI184
I119013
sI185
I119897
sI186
I120475
sI187
I120709
sI188
I121462
sI189
I121974
sI190
I122807
sI191
I123737
sI192
I124223
sI193
I124927
sI194
I125533
sI195
I126092
sI196
I126752
sI197
I126900
sI198
I126932
sI199
I127403
sI200
I128275
sI201
I128761
sI202
I129227
sI203
I129723
sI204
I130464
sI205
I130981
sI206
I131462
sI207
I131874
sI208
I132466
sI209
I132658
sI210
I133432
sI211
I134233
sI212
I135253
sI213
I136237
sI214
I137209
sI215
I137595
sI216
I137893
sI217
I138386
sI218
I138752
sI219
I139253
sI220
I139673
sI221
I139883
sI222
I140058
sI223
I140955
sI224
I141548
sI225
I142298
sI226
I142574
sI227
I142866
sI228
I143306
sI229
I143733
sI230
I144106
sI231
I144594
sI232
I145047
sI233
I145052
sI234
I145108
sI235
I145123
sI236
I145691
sI237
I145871
sI238
I145965
sI239
I146849
sI240
I147247
sI241
I147945
sI242
I148508
sI243
I149238
sI244
I150048
sI245
I150732
sI246
I151454
sI247
I151745
sI248
I152008
sI249
I152134
sI250
I152608
sI251
I153562
sI252
I154307
sI253
I155028
sI254
I155308
sI255
I156010
sI256
I156253
sI257
I156430
sI258
I156945
sI259
I157289
sI260
I157926
sI261
I158611
sI262
I159403
sI263
I160228
sI264
I161058
sI265
I161660
sI266
I162521
sI267
I162766
sI268
I162990
sI269
I163120
sI270
I163863
sI271
I164692
sI272
I165143
sI273
I165244
sI274
I165313
sI275
I165437
sI276
I165531
sI277
I165567
sI278
I165606
sI279
I165655
sI280
I166239
sI281
I166804
sI282
I167403
sI283
I168087
sI284
I168744
sI285
I169354
sI286
I169799
sI287
I169799
sI288
I169799
sI289
I170333
sI290
I170534
sI291
I170817
sI292
I171034
sI293
I171566
sI294
I172024
sI295
I172373
sI296
I172509
sI297
I173119
sI298
I173402
sI299
I173914
sI300
I174138
sI301
I174236
sI302
I174312
sI303
I174584
sI304
I175364
sI305
I176059
sI306
I176954
sI307
I177913
sI308
I178924
sI309
I179911
sI310
I179962
sI311
I179970
sI312
I180597
sI313
I181441
sI314
I182317
sI315
I183268
sI316
I184219
sI317
I184927
sI318
I185802
sI319
I186560
sI320
I187461
sI321
I188139
sI322
I189045
sI323
I189810
sI324
I190558
sI325
I190939
sI326
I191403
sI327
I191717
sI328
I192407
sI329
I192753
sI330
I193694
sI331
I194154
sI332
I195050
sI333
I195771
sI334
I196523
sI335
I197434
sI336
I198223
sI337
I199233
sI338
I199820
sI339
I201148
sI340
I201915
sI341
I202758
sI342
I203577
sI343
I204186
sI344
I204894
sI345
I205453
sI346
I206070
sI347
I206720
sI348
I207066
sI349
I207159
sI350
I207205
sI351
I207872
sI352
I208574
sI353
I208819
sI354
I209038
sI355
I209113
sI356
I209228
sI357
I209897
sI358
I210468
sI359
I211070
sI360
I211802
sI361
I212722
sI362
I213482
sI363
I214325
sI364
I215294
sI365
I215298
sI366
I216010
sI367
I216666
sI368
I217006
sI369
I217985
sI370
I218607
sI371
I219528
sI372
I220427
sI373
I221356
sI374
I221764
sI375
I222578
sI376
I223037
sI377
I223598
sI378
I224158
sI379
I225035
sI380
I225899
sI381
I226431
sI382
I227405
sI383
I227538
sI384
I227836
sI385
I228436
sI386
I229188
sI387
I230112
sI388
I230536
sI389
I231114
sI390
I231424
sI391
I231743
sI392
I232233
sI393
I232446
sI394
I233093
sI395
I233938
sI396
I234877
sI397
I235631
sI398
I236462
sI399
I237439
sI400
I238442
sI401
I239391
sI402
I239980
sI403
I239983
sI404
I240604
sI405
I241398
sI406
I242346
sI407
I243321
sI408
I243808
sI409
I244222
sI410
I244575
sI411
I245053
sI412
I245390
sI413
I245752
sI414
I246211
sI415
I246402
sI416
I246517
sI417
I246549
sI418
I246593
sI419
I247190
sI420
I248015
sI421
I248246
sI422
I248402
sI423
I248482
sI424
I248489
sI425
I249219
sI426
I250000
sI427
I250970
sI428
I251549
sI429
I252627
sI430
I253286
sI431
I253968
sI432
I254951
sI433
I255515
sI434
I256265
sI435
I257101
sI436
I257826
sI437
I258209
sI438
I258257
sI439
I258640
sI440
I258687
sI441
I259070
sI442
I259118
sI443
I259121
sI444
I259933
sI445
I260774
sI446
I261331
sI447
I261501
sI448
I261664
sI449
I261787
sI450
I261902
sI451
I262018
sI452
I262111
sI453
I262117
sI454
I262130
sI455
I262382
sI456
I263099
sI457
I263633
sI458
I264174
sI459
I264702
sI460
I265163
sI461
I265745
sI462
I266162
sI463
I266368
sI464
I266409
sI465
I266452
sI466
I266497
sI467
I266539
sI468
I266590
sI469
I266651
sI470
I266718
sI471
I266774
sI472
I266849
sI473
I266927
sI474
I267021
sI475
I267111
sI476
I267959
sI477
I268870
sI478
I269708
sI479
I270058
sI480
I270778
sI481
I271724
sI482
I272553
sI483
I273397
sI484
I274173
sI485
I274447
sI486
I274712
sI487
I274963
sI488
I275239
sI489
I276091
sI490
I276976
sI491
I277990
sI492
I278587
sI493
I279377
sI494
I280177
sI495
I280741
sI496
I281396
sI497
I282301
sI498
I282811
sI499
I283766
sI500
I284589
sI501
I285516
sI502
I285842
sI503
I286044
sI504
I286271
sI505
I286379
sI506
I286434
sI507
I286527
sI508
I286881
sI509
I287862
sI510
I288223
sI511
I288890
sI512
I289851
sI513
I289906
sI514
I290587
sI515
I291450
sI516
I292402
sI517
I292957
sI518
I293552
sI519
I294092
sI520
I294860
sI521
I295478
sI522
I296360
sI523
I297228
sI524
I297851
sI525
I298588
sI526
I299292
sI527
I300069
sI528
I300638
sI529
I301517
sI530
I302504
sI531
I303284
sI532
I303686
sI533
I303836
sI534
I303868
sI535
I303946
sI536
I304725
sI537
I305422
sI538
I306115
sI539
I306963
sI540
I307914
sI541
I308838
sI542
I309088
sI543
I309692
sI544
I310432
sI545
I310514
sI546
I310586
sI547
I311572
sI548
I312120
sI549
I312952
sI550
I313735
sI551
I314582
sI552
I315455
sI553
I316201
sI554
I317006
sI555
I317739
sI556
I318161
sI557
I318844
sI558
I319916
sI559
I319916
sI560
I320652
sI561
I320867
sI562
I321478
sI563
I321528
sI564
I322259
sI565
I322871
sI566
I323463
sI567
I324197
sI568
I324914
sI569
I325449
sI570
I326150
sI571
I326768
sI572
I327404
sI573
I327407
sI574
I327915
sI575
I328916
sI576
I329982
sI577
I330898
sI578
I331861
sI579
I332519
sI580
I332998
sI581
I333805
sI582
I334893
sI583
I335577
sI584
I335723
sI585
I336462
sI586
I336803
sI587
I337312
sI588
I338174
sI589
I339094
sI590
I339732
sI591
I340492
sI592
I341323
sI593
I342277
sI594
I342567
sI595
I343054
sI596
I343875
sI597
I344959
sI598
I345914
sI599
I346691
sI600
I347171
sI601
I347334
sI602
I348086
sI603
I348700
sI604
I349045
sI605
I349592
sI606
I349794
sI607
I350172
sI608
I351075
sI609
I351863
sI610
I352781
sI611
I353614
sI612
I354544
sI613
I355376
sI614
I356209
sI615
I356901
sI616
I357811
sI617
I358465
sI618
I359065
sI619
I359824
sI620
I360915
sI621
I361638
sI622
I362401
sI623
I363171
sI624
I364025
sI625
I364695
sI626
I365517
sI627
I366066
sI628
I366822
sI629
I367692
sI630
I368453
sI631
I369441
sI632
I370498
sI633
I371231
sI634
I371838
sI635
I372726
sI636
I373527
sI637
I374266
sI638
I374537
sI639
I375070
sI640
I375652
sI641
I375702
sI642
I375759
sI643
I375791
sI644
I375821
sI645
I375872
sI646
I375897
sI647
I375926
sI648
I375974
sI649
I376064
sI650
I376067
sI651
I376170
sI652
I376225
sI653
I376581
sI654
I376836
sI655
I376849
s.